target datalayout = "e-m:e-p270:32:32-p271:32:32-p272:64:64-i64:64-i128:128-f80:128-n8:16:32:64-S128"
target triple = "x86_64-pc-linux-gnu"

; Function Attrs: nounwind uwtable
define internal void @vertical_compose_fidelityiL0_8bit(ptr noundef %0, ptr noundef %1, i32 noundef %2) #0 {
  %4 = alloca ptr, align 8
  %5 = alloca ptr, align 8
  %6 = alloca i32, align 4
  %7 = alloca i32, align 4
  %8 = alloca ptr, align 8
  %9 = alloca ptr, align 8
  %10 = alloca ptr, align 8
  %11 = alloca ptr, align 8
  %12 = alloca ptr, align 8
  %13 = alloca ptr, align 8
  %14 = alloca ptr, align 8
  %15 = alloca ptr, align 8
  %16 = alloca ptr, align 8
  store ptr %0, ptr %4, align 8, !tbaa !44
  store ptr %1, ptr %5, align 8, !tbaa !69
  store i32 %2, ptr %6, align 4, !tbaa !11
  call void @llvm.lifetime.start.p0(i64 4, ptr %7) #5
  call void @llvm.lifetime.start.p0(i64 8, ptr %8) #5
  %17 = load ptr, ptr %4, align 8, !tbaa !44
  store ptr %17, ptr %8, align 8, !tbaa !48
  call void @llvm.lifetime.start.p0(i64 8, ptr %9) #5
  %18 = load ptr, ptr %5, align 8, !tbaa !69
  %19 = getelementptr inbounds ptr, ptr %18, i64 0
  %20 = load ptr, ptr %19, align 8, !tbaa !44
  store ptr %20, ptr %9, align 8, !tbaa !48
  call void @llvm.lifetime.start.p0(i64 8, ptr %10) #5
  %21 = load ptr, ptr %5, align 8, !tbaa !69
  %22 = getelementptr inbounds ptr, ptr %21, i64 1
  %23 = load ptr, ptr %22, align 8, !tbaa !44
  store ptr %23, ptr %10, align 8, !tbaa !48
  call void @llvm.lifetime.start.p0(i64 8, ptr %11) #5
  %24 = load ptr, ptr %5, align 8, !tbaa !69
  %25 = getelementptr inbounds ptr, ptr %24, i64 2
  %26 = load ptr, ptr %25, align 8, !tbaa !44
  store ptr %26, ptr %11, align 8, !tbaa !48
  call void @llvm.lifetime.start.p0(i64 8, ptr %12) #5
  %27 = load ptr, ptr %5, align 8, !tbaa !69
  %28 = getelementptr inbounds ptr, ptr %27, i64 3
  %29 = load ptr, ptr %28, align 8, !tbaa !44
  store ptr %29, ptr %12, align 8, !tbaa !48
  call void @llvm.lifetime.start.p0(i64 8, ptr %13) #5
  %30 = load ptr, ptr %5, align 8, !tbaa !69
  %31 = getelementptr inbounds ptr, ptr %30, i64 4
  %32 = load ptr, ptr %31, align 8, !tbaa !44
  store ptr %32, ptr %13, align 8, !tbaa !48
  call void @llvm.lifetime.start.p0(i64 8, ptr %14) #5
  %33 = load ptr, ptr %5, align 8, !tbaa !69
  %34 = getelementptr inbounds ptr, ptr %33, i64 5
  %35 = load ptr, ptr %34, align 8, !tbaa !44
  store ptr %35, ptr %14, align 8, !tbaa !48
  call void @llvm.lifetime.start.p0(i64 8, ptr %15) #5
  %36 = load ptr, ptr %5, align 8, !tbaa !69
  %37 = getelementptr inbounds ptr, ptr %36, i64 6
  %38 = load ptr, ptr %37, align 8, !tbaa !44
  store ptr %38, ptr %15, align 8, !tbaa !48
  call void @llvm.lifetime.start.p0(i64 8, ptr %16) #5
  %39 = load ptr, ptr %5, align 8, !tbaa !69
  %40 = getelementptr inbounds ptr, ptr %39, i64 7
  %41 = load ptr, ptr %40, align 8, !tbaa !44
  store ptr %41, ptr %16, align 8, !tbaa !48
  store i32 0, ptr %7, align 4, !tbaa !11
  br label %42

42:                                               ; preds = %120, %3
  %43 = load i32, ptr %7, align 4, !tbaa !11
  %44 = load i32, ptr %6, align 4, !tbaa !11
  %45 = icmp slt i32 %43, %44
  br i1 %45, label %46, label %123

46:                                               ; preds = %42
  %47 = load ptr, ptr %8, align 8, !tbaa !48
  %48 = load i32, ptr %7, align 4, !tbaa !11
  %49 = sext i32 %48 to i64
  %50 = getelementptr inbounds i16, ptr %47, i64 %49
  %51 = load i16, ptr %50, align 2, !tbaa !50
  %52 = sext i16 %51 to i32
  %53 = load ptr, ptr %9, align 8, !tbaa !48
  %54 = load i32, ptr %7, align 4, !tbaa !11
  %55 = sext i32 %54 to i64
  %56 = getelementptr inbounds i16, ptr %53, i64 %55
  %57 = load i16, ptr %56, align 2, !tbaa !50
  %58 = sext i16 %57 to i32
  %59 = load ptr, ptr %16, align 8, !tbaa !48
  %60 = load i32, ptr %7, align 4, !tbaa !11
  %61 = sext i32 %60 to i64
  %62 = getelementptr inbounds i16, ptr %59, i64 %61
  %63 = load i16, ptr %62, align 2, !tbaa !50
  %64 = sext i16 %63 to i32
  %65 = add i32 %58, %64
  %66 = mul i32 -8, %65
  %67 = load ptr, ptr %10, align 8, !tbaa !48
  %68 = load i32, ptr %7, align 4, !tbaa !11
  %69 = sext i32 %68 to i64
  %70 = getelementptr inbounds i16, ptr %67, i64 %69
  %71 = load i16, ptr %70, align 2, !tbaa !50
  %72 = sext i16 %71 to i32
  %73 = load ptr, ptr %15, align 8, !tbaa !48
  %74 = load i32, ptr %7, align 4, !tbaa !11
  %75 = sext i32 %74 to i64
  %76 = getelementptr inbounds i16, ptr %73, i64 %75
  %77 = load i16, ptr %76, align 2, !tbaa !50
  %78 = sext i16 %77 to i32
  %79 = add i32 %72, %78
  %80 = mul i32 21, %79
  %81 = add i32 %66, %80
  %82 = load ptr, ptr %11, align 8, !tbaa !48
  %83 = load i32, ptr %7, align 4, !tbaa !11
  %84 = sext i32 %83 to i64
  %85 = getelementptr inbounds i16, ptr %82, i64 %84
  %86 = load i16, ptr %85, align 2, !tbaa !50
  %87 = sext i16 %86 to i32
  %88 = load ptr, ptr %14, align 8, !tbaa !48
  %89 = load i32, ptr %7, align 4, !tbaa !11
  %90 = sext i32 %89 to i64
  %91 = getelementptr inbounds i16, ptr %88, i64 %90
  %92 = load i16, ptr %91, align 2, !tbaa !50
  %93 = sext i16 %92 to i32
  %94 = add i32 %87, %93
  %95 = mul i32 46, %94
  %96 = sub i32 %81, %95
  %97 = load ptr, ptr %12, align 8, !tbaa !48
  %98 = load i32, ptr %7, align 4, !tbaa !11
  %99 = sext i32 %98 to i64
  %100 = getelementptr inbounds i16, ptr %97, i64 %99
  %101 = load i16, ptr %100, align 2, !tbaa !50
  %102 = sext i16 %101 to i32
  %103 = load ptr, ptr %13, align 8, !tbaa !48
  %104 = load i32, ptr %7, align 4, !tbaa !11
  %105 = sext i32 %104 to i64
  %106 = getelementptr inbounds i16, ptr %103, i64 %105
  %107 = load i16, ptr %106, align 2, !tbaa !50
  %108 = sext i16 %107 to i32
  %109 = add i32 %102, %108
  %110 = mul i32 161, %109
  %111 = add i32 %96, %110
  %112 = add i32 %111, 128
  %113 = ashr i32 %112, 8
  %114 = sub i32 %52, %113
  %115 = trunc i32 %114 to i16
  %116 = load ptr, ptr %8, align 8, !tbaa !48
  %117 = load i32, ptr %7, align 4, !tbaa !11
  %118 = sext i32 %117 to i64
  %119 = getelementptr inbounds i16, ptr %116, i64 %118
  store i16 %115, ptr %119, align 2, !tbaa !50
  br label %120

120:                                              ; preds = %46
  %121 = load i32, ptr %7, align 4, !tbaa !11
  %122 = add nsw i32 %121, 1
  store i32 %122, ptr %7, align 4, !tbaa !11
  br label %42, !llvm.loop !72

123:                                              ; preds = %42
  call void @llvm.lifetime.end.p0(i64 8, ptr %16) #5
  call void @llvm.lifetime.end.p0(i64 8, ptr %15) #5
  call void @llvm.lifetime.end.p0(i64 8, ptr %14) #5
  call void @llvm.lifetime.end.p0(i64 8, ptr %13) #5
  call void @llvm.lifetime.end.p0(i64 8, ptr %12) #5
  call void @llvm.lifetime.end.p0(i64 8, ptr %11) #5
  call void @llvm.lifetime.end.p0(i64 8, ptr %10) #5
  call void @llvm.lifetime.end.p0(i64 8, ptr %9) #5
  call void @llvm.lifetime.end.p0(i64 8, ptr %8) #5
  call void @llvm.lifetime.end.p0(i64 4, ptr %7) #5
  ret void
}